target datalayout = "e-m:e-p270:32:32-p271:32:32-p272:64:64-i64:64-i128:128-f80:128-n8:16:32:64-S128"
target triple = "x86_64-unknown-linux-gnu"

%"class.absl::Mutex" = type { %"struct.std::atomic" }
%"struct.std::atomic" = type { %"struct.std::__atomic_base" }
%"struct.std::__atomic_base" = type { i64 }
%"class.absl::CondVar" = type { %"struct.std::atomic" }
%"class.absl::MutexLock" = type { ptr }
%"class.absl::synchronization_internal::KernelTimeout" = type { i64 }
%"class.absl::log_internal::Voidify" = type { i8 }
%"class.absl::log_internal::LogMessageFatal" = type { %"class.absl::log_internal::LogMessage" }
%"class.absl::log_internal::LogMessage" = type { %"class.absl::base_internal::ErrnoSaver", %"class.std::unique_ptr.260" }
%"class.absl::base_internal::ErrnoSaver" = type { i32 }
%"class.std::unique_ptr.260" = type { %"struct.std::__uniq_ptr_data.261" }
%"struct.std::__uniq_ptr_data.261" = type { %"class.std::__uniq_ptr_impl.262" }
%"class.std::__uniq_ptr_impl.262" = type { %"class.std::tuple.263" }
%"class.std::tuple.263" = type { %"struct.std::_Tuple_impl.264" }
%"struct.std::_Tuple_impl.264" = type { %"struct.std::_Head_base.267" }
%"struct.std::_Head_base.267" = type { ptr }
%"class.std::basic_string_view" = type { i64, ptr }
%"struct.(anonymous namespace)::TestContext" = type { i32, i32, i32, i32, %"class.absl::Mutex", %"class.absl::CondVar" }

@.str.3 = private unnamed_addr constant [134 x i8] c"generated/home/dtcxzyw/WorkSpace/Projects/compilers/llvm-opt-benchmark/bench/abseil-cpp/abseil-cpp/absl/synchronization/mutex_test.cc\00", align 1
@.str.184 = private unnamed_addr constant [18 x i8] c"cxt->threads == 2\00", align 1
@.str.185 = private unnamed_addr constant [32 x i8] c"TestSignal should use 2 threads\00", align 1

; Function Attrs: mustprogress nounwind uwtable
define linkonce_odr dso_local void @_ZN4absl24synchronization_internal13KernelTimeoutC2Ev(ptr noundef nonnull align 8 dereferenceable(8) %this) unnamed_addr #7 comdat align 2 {
entry:
  %this.addr = alloca ptr, align 8
  store ptr %this, ptr %this.addr, align 8
  %this1 = load ptr, ptr %this.addr, align 8
  %rep_ = getelementptr inbounds %"class.absl::synchronization_internal::KernelTimeout", ptr %this1, i32 0, i32 0
  store i64 -1, ptr %rep_, align 8
  ret void
}

; Function Attrs: mustprogress uwtable
define linkonce_odr dso_local i64 @_ZN4absl24synchronization_internal13KernelTimeout5NeverEv() #4 comdat align 2 {
entry:
  %retval = alloca %"class.absl::synchronization_internal::KernelTimeout", align 8
  call void @_ZN4absl24synchronization_internal13KernelTimeoutC2Ev(ptr noundef nonnull align 8 dereferenceable(8) %retval)
  %coerce.dive = getelementptr inbounds %"class.absl::synchronization_internal::KernelTimeout", ptr %retval, i32 0, i32 0
  %0 = load i64, ptr %coerce.dive, align 8
  ret i64 %0
}

; Function Attrs: mustprogress uwtable
define linkonce_odr dso_local noundef ptr @_ZN4absl12log_internal12Check_EQImplIiiEEPNSt7__cxx1112basic_stringIcSt11char_traitsIcESaIcEEERKT_RKT0_PKc(ptr noundef nonnull align 4 dereferenceable(4) %v1, ptr noundef nonnull align 4 dereferenceable(4) %v2, ptr noundef %exprtext) #4 comdat {
entry:
  %v1.addr = alloca ptr, align 8
  %v2.addr = alloca ptr, align 8
  %exprtext.addr = alloca ptr, align 8
  store ptr %v1, ptr %v1.addr, align 8
  store ptr %v2, ptr %v2.addr, align 8
  store ptr %exprtext, ptr %exprtext.addr, align 8
  %0 = load ptr, ptr %v1.addr, align 8
  %1 = load i32, ptr %0, align 4
  %2 = load ptr, ptr %v2.addr, align 8
  %3 = load i32, ptr %2, align 4
  %cmp = icmp eq i32 %1, %3
  br i1 %cmp, label %cond.true, label %cond.false

cond.true:                                        ; preds = %entry
  br label %cond.end

cond.false:                                       ; preds = %entry
  %4 = load ptr, ptr %v1.addr, align 8
  %5 = load i32, ptr %4, align 4
  %conv = sext i32 %5 to i64
  %6 = load ptr, ptr %v2.addr, align 8
  %7 = load i32, ptr %6, align 4
  %conv1 = sext i32 %7 to i64
  %8 = load ptr, ptr %exprtext.addr, align 8
  %call = call noundef nonnull ptr @_ZN4absl12log_internal17MakeCheckOpStringIllEEPNSt7__cxx1112basic_stringIcSt11char_traitsIcESaIcEEET_T0_PKc(i64 noundef %conv, i64 noundef %conv1, ptr noundef %8)
  br label %cond.end

cond.end:                                         ; preds = %cond.false, %cond.true
  %cond = phi ptr [ null, %cond.true ], [ %call, %cond.false ]
  ret ptr %cond
}

; Function Attrs: mustprogress nounwind uwtable
define linkonce_odr dso_local void @_ZN4absl9MutexLockD2Ev(ptr noundef nonnull align 8 dereferenceable(8) %this) unnamed_addr #7 comdat align 2 personality ptr @__gxx_personality_v0 {
entry:
  %this.addr = alloca ptr, align 8
  store ptr %this, ptr %this.addr, align 8
  %this1 = load ptr, ptr %this.addr, align 8
  %mu_ = getelementptr inbounds %"class.absl::MutexLock", ptr %this1, i32 0, i32 0
  %0 = load ptr, ptr %mu_, align 8
  invoke void @_ZN4absl5Mutex6UnlockEv(ptr noundef nonnull align 8 dereferenceable(8) %0)
          to label %invoke.cont unwind label %terminate.lpad

invoke.cont:                                      ; preds = %entry
  ret void

terminate.lpad:                                   ; preds = %entry
  %1 = landingpad { ptr, i32 }
          catch ptr null
  %2 = extractvalue { ptr, i32 } %1, 0
  call void @__clang_call_terminate(ptr %2) #27
  unreachable
}

; Function Attrs: mustprogress uwtable
define linkonce_odr dso_local void @_ZN4absl7CondVar4WaitEPNS_5MutexE(ptr noundef nonnull align 8 dereferenceable(8) %this, ptr noundef %mu) #4 comdat align 2 {
entry:
  %this.addr = alloca ptr, align 8
  %mu.addr = alloca ptr, align 8
  %agg.tmp = alloca %"class.absl::synchronization_internal::KernelTimeout", align 8
  store ptr %this, ptr %this.addr, align 8
  store ptr %mu, ptr %mu.addr, align 8
  %this1 = load ptr, ptr %this.addr, align 8
  %0 = load ptr, ptr %mu.addr, align 8
  %call = call i64 @_ZN4absl24synchronization_internal13KernelTimeout5NeverEv()
  %coerce.dive = getelementptr inbounds %"class.absl::synchronization_internal::KernelTimeout", ptr %agg.tmp, i32 0, i32 0
  store i64 %call, ptr %coerce.dive, align 8
  %coerce.dive2 = getelementptr inbounds %"class.absl::synchronization_internal::KernelTimeout", ptr %agg.tmp, i32 0, i32 0
  %1 = load i64, ptr %coerce.dive2, align 8
  %call3 = call noundef zeroext i1 @_ZN4absl7CondVar10WaitCommonEPNS_5MutexENS_24synchronization_internal13KernelTimeoutE(ptr noundef nonnull align 8 dereferenceable(8) %this1, ptr noundef %0, i64 %1)
  ret void
}

; Function Attrs: mustprogress uwtable
define linkonce_odr dso_local void @_ZN4absl9MutexLockC2EPNS_5MutexE(ptr noundef nonnull align 8 dereferenceable(8) %this, ptr noundef %mu) unnamed_addr #4 comdat align 2 {
entry:
  %this.addr = alloca ptr, align 8
  %mu.addr = alloca ptr, align 8
  store ptr %this, ptr %this.addr, align 8
  store ptr %mu, ptr %mu.addr, align 8
  %this1 = load ptr, ptr %this.addr, align 8
  %mu_ = getelementptr inbounds %"class.absl::MutexLock", ptr %this1, i32 0, i32 0
  %0 = load ptr, ptr %mu.addr, align 8
  store ptr %0, ptr %mu_, align 8
  %mu_2 = getelementptr inbounds %"class.absl::MutexLock", ptr %this1, i32 0, i32 0
  %1 = load ptr, ptr %mu_2, align 8
  call void @_ZN4absl5Mutex4LockEv(ptr noundef nonnull align 8 dereferenceable(8) %1)
  ret void
}

; Function Attrs: mustprogress nounwind uwtable
define linkonce_odr dso_local void @_ZNKO4absl12log_internal7VoidifyaaINS0_10LogMessageEEEvRKT_(ptr noundef nonnull align 1 dereferenceable(1) %this, ptr noundef nonnull align 8 dereferenceable(16) %0) #7 comdat align 2 {
entry:
  %this.addr = alloca ptr, align 8
  %.addr = alloca ptr, align 8
  store ptr %this, ptr %this.addr, align 8
  store ptr %0, ptr %.addr, align 8
  ret void
}

; Function Attrs: mustprogress nounwind uwtable
define linkonce_odr dso_local noundef nonnull align 8 dereferenceable(16) ptr @_ZN4absl12log_internal10LogMessage14InternalStreamEv(ptr noundef nonnull align 8 dereferenceable(16) %this) #7 comdat align 2 {
entry:
  %this.addr = alloca ptr, align 8
  store ptr %this, ptr %this.addr, align 8
  %this1 = load ptr, ptr %this.addr, align 8
  ret ptr %this1
}

; Function Attrs: mustprogress uwtable
define linkonce_odr dso_local noundef ptr @_ZN4absl12log_internal12Check_EQImplB5cxx11EiiPKc(i32 noundef %v1, i32 noundef %v2, ptr noundef %exprtext) #4 comdat {
entry:
  %v1.addr = alloca i32, align 4
  %v2.addr = alloca i32, align 4
  %exprtext.addr = alloca ptr, align 8
  store i32 %v1, ptr %v1.addr, align 4
  store i32 %v2, ptr %v2.addr, align 4
  store ptr %exprtext, ptr %exprtext.addr, align 8
  %0 = load ptr, ptr %exprtext.addr, align 8
  %call = call noundef ptr @_ZN4absl12log_internal12Check_EQImplIiiEEPNSt7__cxx1112basic_stringIcSt11char_traitsIcESaIcEEERKT_RKT0_PKc(ptr noundef nonnull align 4 dereferenceable(4) %v1.addr, ptr noundef nonnull align 4 dereferenceable(4) %v2.addr, ptr noundef %0)
  ret ptr %call
}

; Function Attrs: mustprogress nounwind uwtable
define linkonce_odr dso_local noundef i32 @_ZN4absl12log_internal21GetReferenceableValueEi(i32 noundef %t) #7 comdat {
entry:
  %t.addr = alloca i32, align 4
  store i32 %t, ptr %t.addr, align 4
  %0 = load i32, ptr %t.addr, align 4
  ret i32 %0
}

; Function Attrs: mustprogress uwtable
define internal void @_ZN12_GLOBAL__N_110TestSignalEPNS_11TestContextEi(ptr noundef %cxt, i32 noundef %c) #4 personality ptr @__gxx_personality_v0 {
entry:
  %cxt.addr = alloca ptr, align 8
  %c.addr = alloca i32, align 4
  %absl_log_internal_check_op_result = alloca ptr, align 8
  %ref.tmp = alloca %"class.absl::log_internal::Voidify", align 1
  %ref.tmp3 = alloca %"class.absl::log_internal::LogMessageFatal", align 8
  %agg.tmp = alloca %"class.std::basic_string_view", align 8
  %exn.slot = alloca ptr, align 8
  %ehselector.slot = alloca i32, align 4
  %target = alloca i32, align 4
  %l = alloca %"class.absl::MutexLock", align 8
  %a = alloca i32, align 4
  store ptr %cxt, ptr %cxt.addr, align 8
  store i32 %c, ptr %c.addr, align 4
  br label %while.cond

while.cond:                                       ; preds = %entry
  %0 = load ptr, ptr %cxt.addr, align 8
  %threads = getelementptr inbounds %"struct.(anonymous namespace)::TestContext", ptr %0, i32 0, i32 1
  %1 = load i32, ptr %threads, align 4
  %call = call noundef i32 @_ZN4absl12log_internal21GetReferenceableValueEi(i32 noundef %1)
  %call1 = call noundef i32 @_ZN4absl12log_internal21GetReferenceableValueEi(i32 noundef 2)
  %call2 = call noundef ptr @_ZN4absl12log_internal12Check_EQImplB5cxx11EiiPKc(i32 noundef %call, i32 noundef %call1, ptr noundef @.str.184)
  store ptr %call2, ptr %absl_log_internal_check_op_result, align 8
  %2 = load ptr, ptr %absl_log_internal_check_op_result, align 8
  %tobool = icmp ne ptr %2, null
  br i1 %tobool, label %while.body, label %while.end

while.body:                                       ; preds = %while.cond
  %3 = load ptr, ptr %absl_log_internal_check_op_result, align 8
  %call4 = call { i64, ptr } @_ZNKSt7__cxx1112basic_stringIcSt11char_traitsIcESaIcEEcvSt17basic_string_viewIcS2_EEv(ptr noundef nonnull align 8 dereferenceable(32) %3) #3
  %4 = getelementptr inbounds { i64, ptr }, ptr %agg.tmp, i32 0, i32 0
  %5 = extractvalue { i64, ptr } %call4, 0
  store i64 %5, ptr %4, align 8
  %6 = getelementptr inbounds { i64, ptr }, ptr %agg.tmp, i32 0, i32 1
  %7 = extractvalue { i64, ptr } %call4, 1
  store ptr %7, ptr %6, align 8
  %8 = getelementptr inbounds { i64, ptr }, ptr %agg.tmp, i32 0, i32 0
  %9 = load i64, ptr %8, align 8
  %10 = getelementptr inbounds { i64, ptr }, ptr %agg.tmp, i32 0, i32 1
  %11 = load ptr, ptr %10, align 8
  call void @_ZN4absl12log_internal15LogMessageFatalC1EPKciSt17basic_string_viewIcSt11char_traitsIcEE(ptr noundef nonnull align 8 dereferenceable(16) %ref.tmp3, ptr noundef @.str.3, i32 noundef 195, i64 %9, ptr %11) #30
  %call5 = call noundef nonnull align 8 dereferenceable(16) ptr @_ZN4absl12log_internal10LogMessage14InternalStreamEv(ptr noundef nonnull align 8 dereferenceable(16) %ref.tmp3)
  %call6 = invoke noundef nonnull align 8 dereferenceable(16) ptr @_ZN4absl12log_internal10LogMessagelsILi32EEERS1_RAT__Kc(ptr noundef nonnull align 8 dereferenceable(16) %call5, ptr noundef nonnull align 1 dereferenceable(32) @.str.185)
          to label %invoke.cont unwind label %lpad

invoke.cont:                                      ; preds = %while.body
  call void @_ZNKO4absl12log_internal7VoidifyaaINS0_10LogMessageEEEvRKT_(ptr noundef nonnull align 1 dereferenceable(1) %ref.tmp, ptr noundef nonnull align 8 dereferenceable(16) %call6)
  call void @_ZN4absl12log_internal15LogMessageFatalD1Ev(ptr noundef nonnull align 8 dereferenceable(16) %ref.tmp3) #27
  unreachable

lpad:                                             ; preds = %while.body
  %12 = landingpad { ptr, i32 }
          cleanup
  %13 = extractvalue { ptr, i32 } %12, 0
  store ptr %13, ptr %exn.slot, align 8
  %14 = extractvalue { ptr, i32 } %12, 1
  store i32 %14, ptr %ehselector.slot, align 4
  call void @_ZN4absl12log_internal15LogMessageFatalD1Ev(ptr noundef nonnull align 8 dereferenceable(16) %ref.tmp3) #27
  unreachable

15:                                               ; No predecessors!
  br label %eh.resume

while.end:                                        ; preds = %while.cond
  %16 = load i32, ptr %c.addr, align 4
  store i32 %16, ptr %target, align 4
  %17 = load ptr, ptr %cxt.addr, align 8
  %mu = getelementptr inbounds %"struct.(anonymous namespace)::TestContext", ptr %17, i32 0, i32 4
  call void @_ZN4absl9MutexLockC2EPNS_5MutexE(ptr noundef nonnull align 8 dereferenceable(8) %l, ptr noundef %mu)
  %18 = load ptr, ptr %cxt.addr, align 8
  %mu7 = getelementptr inbounds %"struct.(anonymous namespace)::TestContext", ptr %18, i32 0, i32 4
  invoke void @_ZNK4absl5Mutex10AssertHeldEv(ptr noundef nonnull align 8 dereferenceable(8) %mu7)
          to label %invoke.cont9 unwind label %lpad8

invoke.cont9:                                     ; preds = %while.end
  br label %while.cond10

while.cond10:                                     ; preds = %if.end, %invoke.cont9
  %19 = load ptr, ptr %cxt.addr, align 8
  %g0 = getelementptr inbounds %"struct.(anonymous namespace)::TestContext", ptr %19, i32 0, i32 2
  %20 = load i32, ptr %g0, align 8
  %21 = load ptr, ptr %cxt.addr, align 8
  %iterations = getelementptr inbounds %"struct.(anonymous namespace)::TestContext", ptr %21, i32 0, i32 0
  %22 = load i32, ptr %iterations, align 8
  %cmp = icmp slt i32 %20, %22
  br i1 %cmp, label %while.body11, label %while.end31

while.body11:                                     ; preds = %while.cond10
  br label %while.cond12

while.cond12:                                     ; preds = %invoke.cont20, %while.body11
  %23 = load ptr, ptr %cxt.addr, align 8
  %g013 = getelementptr inbounds %"struct.(anonymous namespace)::TestContext", ptr %23, i32 0, i32 2
  %24 = load i32, ptr %g013, align 8
  %25 = load i32, ptr %target, align 4
  %cmp14 = icmp ne i32 %24, %25
  br i1 %cmp14, label %land.rhs, label %land.end

land.rhs:                                         ; preds = %while.cond12
  %26 = load ptr, ptr %cxt.addr, align 8
  %g015 = getelementptr inbounds %"struct.(anonymous namespace)::TestContext", ptr %26, i32 0, i32 2
  %27 = load i32, ptr %g015, align 8
  %28 = load ptr, ptr %cxt.addr, align 8
  %iterations16 = getelementptr inbounds %"struct.(anonymous namespace)::TestContext", ptr %28, i32 0, i32 0
  %29 = load i32, ptr %iterations16, align 8
  %cmp17 = icmp ne i32 %27, %29
  br label %land.end

land.end:                                         ; preds = %land.rhs, %while.cond12
  %30 = phi i1 [ false, %while.cond12 ], [ %cmp17, %land.rhs ]
  br i1 %30, label %while.body18, label %while.end21

while.body18:                                     ; preds = %land.end
  %31 = load ptr, ptr %cxt.addr, align 8
  %cv = getelementptr inbounds %"struct.(anonymous namespace)::TestContext", ptr %31, i32 0, i32 5
  %32 = load ptr, ptr %cxt.addr, align 8
  %mu19 = getelementptr inbounds %"struct.(anonymous namespace)::TestContext", ptr %32, i32 0, i32 4
  invoke void @_ZN4absl7CondVar4WaitEPNS_5MutexE(ptr noundef nonnull align 8 dereferenceable(8) %cv, ptr noundef %mu19)
          to label %invoke.cont20 unwind label %lpad8

invoke.cont20:                                    ; preds = %while.body18
  br label %while.cond12, !llvm.loop !55

lpad8:                                            ; preds = %if.then, %while.body18, %while.end
  %33 = landingpad { ptr, i32 }
          cleanup
  %34 = extractvalue { ptr, i32 } %33, 0
  store ptr %34, ptr %exn.slot, align 8
  %35 = extractvalue { ptr, i32 } %33, 1
  store i32 %35, ptr %ehselector.slot, align 4
  call void @_ZN4absl9MutexLockD2Ev(ptr noundef nonnull align 8 dereferenceable(8) %l) #3
  br label %eh.resume

while.end21:                                      ; preds = %land.end
  %36 = load ptr, ptr %cxt.addr, align 8
  %g022 = getelementptr inbounds %"struct.(anonymous namespace)::TestContext", ptr %36, i32 0, i32 2
  %37 = load i32, ptr %g022, align 8
  %38 = load ptr, ptr %cxt.addr, align 8
  %iterations23 = getelementptr inbounds %"struct.(anonymous namespace)::TestContext", ptr %38, i32 0, i32 0
  %39 = load i32, ptr %iterations23, align 8
  %cmp24 = icmp slt i32 %37, %39
  br i1 %cmp24, label %if.then, label %if.end

if.then:                                          ; preds = %while.end21
  %40 = load ptr, ptr %cxt.addr, align 8
  %g025 = getelementptr inbounds %"struct.(anonymous namespace)::TestContext", ptr %40, i32 0, i32 2
  %41 = load i32, ptr %g025, align 8
  %add = add nsw i32 %41, 1
  store i32 %add, ptr %a, align 4
  %42 = load i32, ptr %a, align 4
  %43 = load ptr, ptr %cxt.addr, align 8
  %g026 = getelementptr inbounds %"struct.(anonymous namespace)::TestContext", ptr %43, i32 0, i32 2
  store i32 %42, ptr %g026, align 8
  %44 = load ptr, ptr %cxt.addr, align 8
  %cv27 = getelementptr inbounds %"struct.(anonymous namespace)::TestContext", ptr %44, i32 0, i32 5
  invoke void @_ZN4absl7CondVar6SignalEv(ptr noundef nonnull align 8 dereferenceable(8) %cv27)
          to label %invoke.cont28 unwind label %lpad8

invoke.cont28:                                    ; preds = %if.then
  %45 = load ptr, ptr %cxt.addr, align 8
  %threads29 = getelementptr inbounds %"struct.(anonymous namespace)::TestContext", ptr %45, i32 0, i32 1
  %46 = load i32, ptr %threads29, align 4
  %47 = load i32, ptr %target, align 4
  %add30 = add nsw i32 %47, %46
  store i32 %add30, ptr %target, align 4
  br label %if.end

if.end:                                           ; preds = %invoke.cont28, %while.end21
  br label %while.cond10, !llvm.loop !56

while.end31:                                      ; preds = %while.cond10
  call void @_ZN4absl9MutexLockD2Ev(ptr noundef nonnull align 8 dereferenceable(8) %l) #3
  ret void

eh.resume:                                        ; preds = %lpad8, %15
  %exn = load ptr, ptr %exn.slot, align 8
  %sel = load i32, ptr %ehselector.slot, align 4
  %lpad.val = insertvalue { ptr, i32 } poison, ptr %exn, 0
  %lpad.val32 = insertvalue { ptr, i32 } %lpad.val, i32 %sel, 1
  resume { ptr, i32 } %lpad.val32
}