; Function Attrs: mustprogress uwtable
define internal void @_ZN12_GLOBAL__N_110TestSignalEPNS_11TestContextEi(ptr noundef %cxt, i32 noundef %c) #3 personality ptr @__gxx_personality_v0 {
entry:
  %ref.tmp3 = alloca %"class.absl::log_internal::LogMessageFatal", align 8
  %threads = getelementptr inbounds i8, ptr %cxt, i64 4
  %0 = load i32, ptr %threads, align 4
  %cmp.i.i = icmp eq i32 %0, 2
  br i1 %cmp.i.i, label %while.end, label %while.body

while.body:                                       ; preds = %entry
  %conv.i.i = sext i32 %0 to i64
  %call.i.i = tail call noundef nonnull ptr @_ZN4absl12log_internal17MakeCheckOpStringIllEEPNSt7__cxx1112basic_stringIcSt11char_traitsIcESaIcEEET_T0_PKc(i64 noundef %conv.i.i, i64 noundef 2, ptr noundef nonnull @.str.184)
  %call4 = tail call { i64, ptr } @_ZNKSt7__cxx1112basic_stringIcSt11char_traitsIcESaIcEEcvSt17basic_string_viewIcS2_EEv(ptr noundef nonnull align 8 dereferenceable(32) %call.i.i) #34
  %1 = extractvalue { i64, ptr } %call4, 0
  %2 = extractvalue { i64, ptr } %call4, 1
  call void @_ZN4absl12log_internal15LogMessageFatalC1EPKciSt17basic_string_viewIcSt11char_traitsIcEE(ptr noundef nonnull align 8 dereferenceable(16) %ref.tmp3, ptr noundef nonnull @.str.3, i32 noundef 195, i64 %1, ptr %2) #40
  %call6 = invoke noundef nonnull align 8 dereferenceable(16) ptr @_ZN4absl12log_internal10LogMessagelsILi32EEERS1_RAT__Kc(ptr noundef nonnull align 8 dereferenceable(16) %ref.tmp3, ptr noundef nonnull align 1 dereferenceable(32) @.str.185)
          to label %invoke.cont unwind label %lpad

invoke.cont:                                      ; preds = %while.body
  call void @_ZN4absl12log_internal15LogMessageFatalD1Ev(ptr noundef nonnull align 8 dereferenceable(16) %ref.tmp3) #38
  unreachable

lpad:                                             ; preds = %while.body
  %3 = landingpad { ptr, i32 }
          cleanup
  call void @_ZN4absl12log_internal15LogMessageFatalD1Ev(ptr noundef nonnull align 8 dereferenceable(16) %ref.tmp3) #38
  unreachable

while.end:                                        ; preds = %entry
  %mu = getelementptr inbounds i8, ptr %cxt, i64 16
  tail call void @_ZN4absl5Mutex4LockEv(ptr noundef nonnull align 8 dereferenceable(8) %mu)
  invoke void @_ZNK4absl5Mutex10AssertHeldEv(ptr noundef nonnull align 8 dereferenceable(8) %mu)
          to label %while.cond10.preheader unwind label %lpad8.loopexit.split-lp.loopexit.split-lp

while.cond10.preheader:                           ; preds = %while.end
  %g0 = getelementptr inbounds i8, ptr %cxt, i64 8
  %4 = load i32, ptr %g0, align 8
  %5 = load i32, ptr %cxt, align 8
  %cmp29 = icmp slt i32 %4, %5
  br i1 %cmp29, label %while.cond12.preheader.lr.ph, label %while.end31

while.cond12.preheader.lr.ph:                     ; preds = %while.cond10.preheader
  %cv = getelementptr inbounds i8, ptr %cxt, i64 24
  br label %while.cond12.preheader

while.cond12.preheader:                           ; preds = %while.cond12.preheader.lr.ph, %if.end
  %target.030 = phi i32 [ %c, %while.cond12.preheader.lr.ph ], [ %target.1, %if.end ]
  br label %while.cond12

while.cond12:                                     ; preds = %while.cond12.preheader, %while.body18
  %6 = load i32, ptr %g0, align 8
  %cmp14.not = icmp eq i32 %6, %target.030
  %.pre = load i32, ptr %cxt, align 8
  br i1 %cmp14.not, label %while.end21, label %land.rhs

land.rhs:                                         ; preds = %while.cond12
  %cmp17.not = icmp eq i32 %6, %.pre
  br i1 %cmp17.not, label %while.end21, label %while.body18

while.body18:                                     ; preds = %land.rhs
  %call3.i19 = invoke noundef zeroext i1 @_ZN4absl7CondVar10WaitCommonEPNS_5MutexENS_24synchronization_internal13KernelTimeoutE(ptr noundef nonnull align 8 dereferenceable(8) %cv, ptr noundef nonnull %mu, i64 -1)
          to label %while.cond12 unwind label %lpad8.loopexit

lpad8.loopexit:                                   ; preds = %while.body18
  %lpad.loopexit = landingpad { ptr, i32 }
          cleanup
  br label %lpad8

lpad8.loopexit.split-lp.loopexit:                 ; preds = %if.then
  %lpad.loopexit25 = landingpad { ptr, i32 }
          cleanup
  br label %lpad8

lpad8.loopexit.split-lp.loopexit.split-lp:        ; preds = %while.end
  %lpad.loopexit.split-lp26 = landingpad { ptr, i32 }
          cleanup
  br label %lpad8

lpad8:                                            ; preds = %lpad8.loopexit.split-lp.loopexit, %lpad8.loopexit.split-lp.loopexit.split-lp, %lpad8.loopexit
  %lpad.phi = phi { ptr, i32 } [ %lpad.loopexit, %lpad8.loopexit ], [ %lpad.loopexit25, %lpad8.loopexit.split-lp.loopexit ], [ %lpad.loopexit.split-lp26, %lpad8.loopexit.split-lp.loopexit.split-lp ]
  invoke void @_ZN4absl5Mutex6UnlockEv(ptr noundef nonnull align 8 dereferenceable(8) %mu)
          to label %_ZN4absl9MutexLockD2Ev.exit unwind label %terminate.lpad.i

terminate.lpad.i:                                 ; preds = %lpad8
  %7 = landingpad { ptr, i32 }
          catch ptr null
  %8 = extractvalue { ptr, i32 } %7, 0
  tail call void @__clang_call_terminate(ptr %8) #38
  unreachable

_ZN4absl9MutexLockD2Ev.exit:                      ; preds = %lpad8
  resume { ptr, i32 } %lpad.phi

while.end21:                                      ; preds = %while.cond12, %land.rhs
  %.lcssa = phi i32 [ %target.030, %while.cond12 ], [ %6, %land.rhs ]
  %cmp24 = icmp slt i32 %.lcssa, %.pre
  br i1 %cmp24, label %if.then, label %if.end

if.then:                                          ; preds = %while.end21
  %add = add nsw i32 %.lcssa, 1
  store i32 %add, ptr %g0, align 8
  invoke void @_ZN4absl7CondVar6SignalEv(ptr noundef nonnull align 8 dereferenceable(8) %cv)
          to label %invoke.cont28 unwind label %lpad8.loopexit.split-lp.loopexit

invoke.cont28:                                    ; preds = %if.then
  %9 = load i32, ptr %threads, align 4
  %add30 = add nsw i32 %9, %target.030
  %.pre32 = load i32, ptr %g0, align 8
  %.pre33 = load i32, ptr %cxt, align 8
  br label %if.end

if.end:                                           ; preds = %invoke.cont28, %while.end21
  %10 = phi i32 [ %.pre33, %invoke.cont28 ], [ %.pre, %while.end21 ]
  %11 = phi i32 [ %.pre32, %invoke.cont28 ], [ %6, %while.end21 ]
  %target.1 = phi i32 [ %add30, %invoke.cont28 ], [ %target.030, %while.end21 ]
  %cmp = icmp slt i32 %11, %10
  br i1 %cmp, label %while.cond12.preheader, label %while.end31, !llvm.loop !333

while.end31:                                      ; preds = %if.end, %while.cond10.preheader
  invoke void @_ZN4absl5Mutex6UnlockEv(ptr noundef nonnull align 8 dereferenceable(8) %mu)
          to label %_ZN4absl9MutexLockD2Ev.exit21 unwind label %terminate.lpad.i20

terminate.lpad.i20:                               ; preds = %while.end31
  %12 = landingpad { ptr, i32 }
          catch ptr null
  %13 = extractvalue { ptr, i32 } %12, 0
  tail call void @__clang_call_terminate(ptr %13) #38
  unreachable

_ZN4absl9MutexLockD2Ev.exit21:                    ; preds = %while.end31
  ret void
}